target datalayout = "e-m:e-p270:32:32-p271:32:32-p272:64:64-i64:64-f80:128-n8:16:32:64-S128"
target triple = "x86_64-pc-linux-gnu"

@.str = private unnamed_addr constant [3 x i8] c"%d\00", align 1
@.str.1 = private unnamed_addr constant [3 x i8] c"%f\00", align 1
@.str.2 = private unnamed_addr constant [4 x i8] c"%d,\00", align 1

; Function Attrs: noinline nounwind uwtable
define dso_local void @main() #0 {
  %1 = alloca [300 x float], align 16
  %2 = alloca [300 x float], align 16
  %3 = alloca [300 x i32], align 16
  %4 = alloca float, align 4
  %5 = alloca float, align 4
  %6 = alloca i32, align 4
  %7 = alloca i32, align 4
  %8 = alloca i32, align 4
  %9 = alloca i32, align 4
  %10 = alloca i32, align 4
  store float 0.000000e+00, float* %4, align 4
  store i32 0, i32* %9, align 4
  %11 = call i32 (i8*, ...) @__isoc99_scanf(i8* getelementptr inbounds ([3 x i8], [3 x i8]* @.str, i64 0, i64 0), i32* %8)
  store i32 0, i32* %6, align 4
  br label %12

12:                                               ; preds = %27, %0
  %13 = load i32, i32* %6, align 4
  %14 = load i32, i32* %8, align 4
  %15 = icmp slt i32 %13, %14
  br i1 %15, label %16, label %30

16:                                               ; preds = %12
  %17 = load i32, i32* %6, align 4
  %18 = sext i32 %17 to i64
  %19 = getelementptr inbounds [300 x float], [300 x float]* %1, i64 0, i64 %18
  %20 = call i32 (i8*, ...) @__isoc99_scanf(i8* getelementptr inbounds ([3 x i8], [3 x i8]* @.str.1, i64 0, i64 0), float* %19)
  %21 = load float, float* %4, align 4
  %22 = load i32, i32* %6, align 4
  %23 = sext i32 %22 to i64
  %24 = getelementptr inbounds [300 x float], [300 x float]* %1, i64 0, i64 %23
  %25 = load float, float* %24, align 4
  %26 = fadd float %21, %25
  store float %26, float* %4, align 4
  br label %27

27:                                               ; preds = %16
  %28 = load i32, i32* %6, align 4
  %29 = add nsw i32 %28, 1
  store i32 %29, i32* %6, align 4
  br label %12

30:                                               ; preds = %12
  %31 = load float, float* %4, align 4
  %32 = load i32, i32* %8, align 4
  %33 = sitofp i32 %32 to float
  %34 = fdiv float %31, %33
  store float %34, float* %4, align 4
  store i32 0, i32* %6, align 4
  br label %35

35:                                               ; preds = %64, %30
  %36 = load i32, i32* %6, align 4
  %37 = load i32, i32* %8, align 4
  %38 = icmp slt i32 %36, %37
  br i1 %38, label %39, label %67

39:                                               ; preds = %35
  %40 = load i32, i32* %6, align 4
  %41 = sext i32 %40 to i64
  %42 = getelementptr inbounds [300 x float], [300 x float]* %1, i64 0, i64 %41
  %43 = load float, float* %42, align 4
  %44 = load float, float* %4, align 4
  %45 = fsub float %43, %44
  %46 = load i32, i32* %6, align 4
  %47 = sext i32 %46 to i64
  %48 = getelementptr inbounds [300 x float], [300 x float]* %2, i64 0, i64 %47
  store float %45, float* %48, align 4
  %49 = load i32, i32* %6, align 4
  %50 = sext i32 %49 to i64
  %51 = getelementptr inbounds [300 x float], [300 x float]* %2, i64 0, i64 %50
  %52 = load float, float* %51, align 4
  %53 = fcmp olt float %52, 0.000000e+00
  br i1 %53, label %54, label %63

54:                                               ; preds = %39
  %55 = load i32, i32* %6, align 4
  %56 = sext i32 %55 to i64
  %57 = getelementptr inbounds [300 x float], [300 x float]* %2, i64 0, i64 %56
  %58 = load float, float* %57, align 4
  %59 = fsub float 0.000000e+00, %58
  %60 = load i32, i32* %6, align 4
  %61 = sext i32 %60 to i64
  %62 = getelementptr inbounds [300 x float], [300 x float]* %2, i64 0, i64 %61
  store float %59, float* %62, align 4
  br label %63

63:                                               ; preds = %54, %39
  br label %64

64:                                               ; preds = %63
  %65 = load i32, i32* %6, align 4
  %66 = add nsw i32 %65, 1
  store i32 %66, i32* %6, align 4
  br label %35

67:                                               ; preds = %35
  %68 = getelementptr inbounds [300 x float], [300 x float]* %2, i64 0, i64 0
  %69 = load float, float* %68, align 16
  store float %69, float* %5, align 4
  store i32 0, i32* %6, align 4
  br label %70

70:                                               ; preds = %87, %67
  %71 = load i32, i32* %6, align 4
  %72 = load i32, i32* %8, align 4
  %73 = icmp slt i32 %71, %72
  br i1 %73, label %74, label %90

74:                                               ; preds = %70
  %75 = load i32, i32* %6, align 4
  %76 = sext i32 %75 to i64
  %77 = getelementptr inbounds [300 x float], [300 x float]* %2, i64 0, i64 %76
  %78 = load float, float* %77, align 4
  %79 = load float, float* %5, align 4
  %80 = fcmp ogt float %78, %79
  br i1 %80, label %81, label %86

81:                                               ; preds = %74
  %82 = load i32, i32* %6, align 4
  %83 = sext i32 %82 to i64
  %84 = getelementptr inbounds [300 x float], [300 x float]* %2, i64 0, i64 %83
  %85 = load float, float* %84, align 4
  store float %85, float* %5, align 4
  br label %86

86:                                               ; preds = %81, %74
  br label %87

87:                                               ; preds = %86
  %88 = load i32, i32* %6, align 4
  %89 = add nsw i32 %88, 1
  store i32 %89, i32* %6, align 4
  br label %70

90:                                               ; preds = %70
  store i32 0, i32* %6, align 4
  br label %91

91:                                               ; preds = %114, %90
  %92 = load i32, i32* %6, align 4
  %93 = load i32, i32* %8, align 4
  %94 = icmp slt i32 %92, %93
  br i1 %94, label %95, label %117

95:                                               ; preds = %91
  %96 = load i32, i32* %6, align 4
  %97 = sext i32 %96 to i64
  %98 = getelementptr inbounds [300 x float], [300 x float]* %2, i64 0, i64 %97
  %99 = load float, float* %98, align 4
  %100 = load float, float* %5, align 4
  %101 = fcmp oeq float %99, %100
  br i1 %101, label %102, label %113

102:                                              ; preds = %95
  %103 = load i32, i32* %6, align 4
  %104 = sext i32 %103 to i64
  %105 = getelementptr inbounds [300 x float], [300 x float]* %1, i64 0, i64 %104
  %106 = load float, float* %105, align 4
  %107 = fptosi float %106 to i32
  %108 = load i32, i32* %9, align 4
  %109 = sext i32 %108 to i64
  %110 = getelementptr inbounds [300 x i32], [300 x i32]* %3, i64 0, i64 %109
  store i32 %107, i32* %110, align 4
  %111 = load i32, i32* %9, align 4
  %112 = add nsw i32 %111, 1
  store i32 %112, i32* %9, align 4
  br label %113

113:                                              ; preds = %102, %95
  br label %114

114:                                              ; preds = %113
  %115 = load i32, i32* %6, align 4
  %116 = add nsw i32 %115, 1
  store i32 %116, i32* %6, align 4
  br label %91

117:                                              ; preds = %91
  store i32 0, i32* %6, align 4
  br label %118

118:                                              ; preds = %160, %117
  %119 = load i32, i32* %6, align 4
  %120 = load i32, i32* %9, align 4
  %121 = icmp slt i32 %119, %120
  br i1 %121, label %122, label %163

122:                                              ; preds = %118
  %123 = load i32, i32* %6, align 4
  %124 = add nsw i32 %123, 1
  store i32 %124, i32* %7, align 4
  br label %125

125:                                              ; preds = %156, %122
  %126 = load i32, i32* %7, align 4
  %127 = load i32, i32* %9, align 4
  %128 = icmp slt i32 %126, %127
  br i1 %128, label %129, label %159

129:                                              ; preds = %125
  %130 = load i32, i32* %6, align 4
  %131 = sext i32 %130 to i64
  %132 = getelementptr inbounds [300 x i32], [300 x i32]* %3, i64 0, i64 %131
  %133 = load i32, i32* %132, align 4
  %134 = load i32, i32* %7, align 4
  %135 = sext i32 %134 to i64
  %136 = getelementptr inbounds [300 x i32], [300 x i32]* %3, i64 0, i64 %135
  %137 = load i32, i32* %136, align 4
  %138 = icmp sgt i32 %133, %137
  br i1 %138, label %139, label %155

139:                                              ; preds = %129
  %140 = load i32, i32* %7, align 4
  %141 = sext i32 %140 to i64
  %142 = getelementptr inbounds [300 x i32], [300 x i32]* %3, i64 0, i64 %141
  %143 = load i32, i32* %142, align 4
  store i32 %143, i32* %10, align 4
  %144 = load i32, i32* %6, align 4
  %145 = sext i32 %144 to i64
  %146 = getelementptr inbounds [300 x i32], [300 x i32]* %3, i64 0, i64 %145
  %147 = load i32, i32* %146, align 4
  %148 = load i32, i32* %7, align 4
  %149 = sext i32 %148 to i64
  %150 = getelementptr inbounds [300 x i32], [300 x i32]* %3, i64 0, i64 %149
  store i32 %147, i32* %150, align 4
  %151 = load i32, i32* %10, align 4
  %152 = load i32, i32* %6, align 4
  %153 = sext i32 %152 to i64
  %154 = getelementptr inbounds [300 x i32], [300 x i32]* %3, i64 0, i64 %153
  store i32 %151, i32* %154, align 4
  br label %155

155:                                              ; preds = %139, %129
  br label %156

156:                                              ; preds = %155
  %157 = load i32, i32* %7, align 4
  %158 = add nsw i32 %157, 1
  store i32 %158, i32* %7, align 4
  br label %125

159:                                              ; preds = %125
  br label %160

160:                                              ; preds = %159
  %161 = load i32, i32* %6, align 4
  %162 = add nsw i32 %161, 1
  store i32 %162, i32* %6, align 4
  br label %118

163:                                              ; preds = %118
  store i32 0, i32* %6, align 4
  br label %164

164:                                              ; preds = %175, %163
  %165 = load i32, i32* %6, align 4
  %166 = load i32, i32* %9, align 4
  %167 = sub nsw i32 %166, 1
  %168 = icmp slt i32 %165, %167
  br i1 %168, label %169, label %178

169:                                              ; preds = %164
  %170 = load i32, i32* %6, align 4
  %171 = sext i32 %170 to i64
  %172 = getelementptr inbounds [300 x i32], [300 x i32]* %3, i64 0, i64 %171
  %173 = load i32, i32* %172, align 4
  %174 = call i32 (i8*, ...) @printf(i8* getelementptr inbounds ([4 x i8], [4 x i8]* @.str.2, i64 0, i64 0), i32 %173)
  br label %175

175:                                              ; preds = %169
  %176 = load i32, i32* %6, align 4
  %177 = add nsw i32 %176, 1
  store i32 %177, i32* %6, align 4
  br label %164

178:                                              ; preds = %164
  %179 = load i32, i32* %9, align 4
  %180 = sub nsw i32 %179, 1
  %181 = sext i32 %180 to i64
  %182 = getelementptr inbounds [300 x i32], [300 x i32]* %3, i64 0, i64 %181
  %183 = load i32, i32* %182, align 4
  %184 = call i32 (i8*, ...) @printf(i8* getelementptr inbounds ([3 x i8], [3 x i8]* @.str, i64 0, i64 0), i32 %183)
  ret void
}